target datalayout = "e-m:e-p270:32:32-p271:32:32-p272:64:64-i64:64-i128:128-f80:128-n8:16:32:64-S128"
target triple = "x86_64-pc-linux-gnu"

%struct.BufFile = type { i32, ptr, i8, i8, i8, ptr, ptr, ptr, i32, i64, i32, i32, %union.PGAlignedBlock }
%union.PGAlignedBlock = type { double, [8184 x i8] }

@CurrentResourceOwner = external global ptr, align 8

; Function Attrs: nounwind uwtable
define internal ptr @makeBufFileCommon(i32 noundef %0) #0 {
  %2 = alloca i32, align 4
  %3 = alloca ptr, align 8
  store i32 %0, ptr %2, align 4
  call void @llvm.lifetime.start.p0(i64 8, ptr %3) #8
  %4 = call ptr @palloc(i64 noundef 8264)
  store ptr %4, ptr %3, align 8
  %5 = load i32, ptr %2, align 4
  %6 = load ptr, ptr %3, align 8
  %7 = getelementptr inbounds nuw %struct.BufFile, ptr %6, i32 0, i32 0
  store i32 %5, ptr %7, align 8
  %8 = load ptr, ptr %3, align 8
  %9 = getelementptr inbounds nuw %struct.BufFile, ptr %8, i32 0, i32 2
  store i8 0, ptr %9, align 8
  %10 = load ptr, ptr %3, align 8
  %11 = getelementptr inbounds nuw %struct.BufFile, ptr %10, i32 0, i32 3
  store i8 0, ptr %11, align 1
  %12 = load ptr, ptr @CurrentResourceOwner, align 8
  %13 = load ptr, ptr %3, align 8
  %14 = getelementptr inbounds nuw %struct.BufFile, ptr %13, i32 0, i32 7
  store ptr %12, ptr %14, align 8
  %15 = load ptr, ptr %3, align 8
  %16 = getelementptr inbounds nuw %struct.BufFile, ptr %15, i32 0, i32 8
  store i32 0, ptr %16, align 8
  %17 = load ptr, ptr %3, align 8
  %18 = getelementptr inbounds nuw %struct.BufFile, ptr %17, i32 0, i32 9
  store i64 0, ptr %18, align 8
  %19 = load ptr, ptr %3, align 8
  %20 = getelementptr inbounds nuw %struct.BufFile, ptr %19, i32 0, i32 10
  store i32 0, ptr %20, align 8
  %21 = load ptr, ptr %3, align 8
  %22 = getelementptr inbounds nuw %struct.BufFile, ptr %21, i32 0, i32 11
  store i32 0, ptr %22, align 4
  %23 = load ptr, ptr %3, align 8
  call void @llvm.lifetime.end.p0(i64 8, ptr %3) #8
  ret ptr %23
}

; Function Attrs: nounwind uwtable
define internal ptr @makeBufFile(i32 noundef %0) #0 {
  %2 = alloca i32, align 4
  %3 = alloca ptr, align 8
  store i32 %0, ptr %2, align 4
  call void @llvm.lifetime.start.p0(i64 8, ptr %3) #8
  %4 = call ptr @makeBufFileCommon(i32 noundef 1)
  store ptr %4, ptr %3, align 8
  %5 = call ptr @palloc(i64 noundef 4)
  %6 = load ptr, ptr %3, align 8
  %7 = getelementptr inbounds nuw %struct.BufFile, ptr %6, i32 0, i32 1
  store ptr %5, ptr %7, align 8
  %8 = load i32, ptr %2, align 4
  %9 = load ptr, ptr %3, align 8
  %10 = getelementptr inbounds nuw %struct.BufFile, ptr %9, i32 0, i32 1
  %11 = load ptr, ptr %10, align 8
  %12 = getelementptr inbounds i32, ptr %11, i64 0
  store i32 %8, ptr %12, align 4
  %13 = load ptr, ptr %3, align 8
  %14 = getelementptr inbounds nuw %struct.BufFile, ptr %13, i32 0, i32 4
  store i8 0, ptr %14, align 2
  %15 = load ptr, ptr %3, align 8
  %16 = getelementptr inbounds nuw %struct.BufFile, ptr %15, i32 0, i32 5
  store ptr null, ptr %16, align 8
  %17 = load ptr, ptr %3, align 8
  %18 = getelementptr inbounds nuw %struct.BufFile, ptr %17, i32 0, i32 6
  store ptr null, ptr %18, align 8
  %19 = load ptr, ptr %3, align 8
  call void @llvm.lifetime.end.p0(i64 8, ptr %3) #8
  ret ptr %19
}

; Function Attrs: nounwind uwtable
define dso_local ptr @BufFileCreateTemp(i1 noundef zeroext %0) #0 {
  %2 = alloca i8, align 1
  %3 = alloca ptr, align 8
  %4 = alloca i32, align 4
  %5 = zext i1 %0 to i8
  store i8 %5, ptr %2, align 1
  call void @llvm.lifetime.start.p0(i64 8, ptr %3) #8
  call void @llvm.lifetime.start.p0(i64 4, ptr %4) #8
  call void @PrepareTempTablespaces()
  %6 = load i8, ptr %2, align 1, !range !4, !noundef !5
  %7 = trunc i8 %6 to i1
  %8 = call i32 @OpenTemporaryFile(i1 noundef zeroext %7)
  store i32 %8, ptr %4, align 4
  %9 = load i32, ptr %4, align 4
  %10 = call ptr @makeBufFile(i32 noundef %9)
  store ptr %10, ptr %3, align 8
  %11 = load i8, ptr %2, align 1, !range !4, !noundef !5
  %12 = trunc i8 %11 to i1
  %13 = load ptr, ptr %3, align 8
  %14 = getelementptr inbounds nuw %struct.BufFile, ptr %13, i32 0, i32 2
  %15 = zext i1 %12 to i8
  store i8 %15, ptr %14, align 8
  %16 = load ptr, ptr %3, align 8
  call void @llvm.lifetime.end.p0(i64 4, ptr %4) #8
  call void @llvm.lifetime.end.p0(i64 8, ptr %3) #8
  ret ptr %16
}