; Function Attrs: nounwind uwtable
define dso_local noundef ptr @BufFileCreateTemp(i1 noundef zeroext %0) local_unnamed_addr #0 {
  %2 = zext i1 %0 to i8
  tail call void @PrepareTempTablespaces() #10
  %3 = tail call i32 @OpenTemporaryFile(i1 noundef zeroext %0) #10
  %4 = tail call ptr @palloc(i64 noundef 8264) #10
  store i32 1, ptr %4, align 8
  %5 = getelementptr inbounds nuw i8, ptr %4, i64 16
  store i8 0, ptr %5, align 8
  %6 = getelementptr inbounds nuw i8, ptr %4, i64 17
  store i8 0, ptr %6, align 1
  %7 = load ptr, ptr @CurrentResourceOwner, align 8
  %8 = getelementptr inbounds nuw i8, ptr %4, i64 40
  store ptr %7, ptr %8, align 8
  %9 = getelementptr inbounds nuw i8, ptr %4, i64 48
  store i32 0, ptr %9, align 8
  %10 = getelementptr inbounds nuw i8, ptr %4, i64 56
  tail call void @llvm.memset.p0.i64(ptr noundef nonnull align 8 dereferenceable(16) %10, i8 0, i64 16, i1 false)
  %11 = tail call ptr @palloc(i64 noundef 4) #10
  %12 = getelementptr inbounds nuw i8, ptr %4, i64 8
  store ptr %11, ptr %12, align 8
  store i32 %3, ptr %11, align 4
  %13 = getelementptr inbounds nuw i8, ptr %4, i64 18
  store i8 0, ptr %13, align 2
  %14 = getelementptr inbounds nuw i8, ptr %4, i64 24
  tail call void @llvm.memset.p0.i64(ptr noundef nonnull align 8 dereferenceable(16) %14, i8 0, i64 16, i1 false)
  store i8 %2, ptr %5, align 8
  ret ptr %4
}